; Function Attrs: mustprogress uwtable
define internal void @_ZN10open_spiel12_GLOBAL__N_117StatefulRandomBot12InformActionERKNS_5StateEil(ptr nocapture noundef nonnull readonly align 8 dereferenceable(5024) %0, ptr noundef nonnull align 8 dereferenceable(60) %1, i32 %2, i64 noundef %3) unnamed_addr #3 align 2 {
  %5 = getelementptr inbounds nuw i8, ptr %0, i64 5016
  %6 = load ptr, ptr %5, align 8
  tail call fastcc void @_ZNK10open_spiel12_GLOBAL__N_117StatefulRandomBot16CheckStatesEqualERKNS_5StateES4_(ptr noundef nonnull align 8 dereferenceable(60) %1, ptr noundef nonnull align 8 dereferenceable(60) %6)
  %7 = load ptr, ptr %5, align 8
  %8 = load ptr, ptr %7, align 8
  %9 = getelementptr inbounds i8, ptr %8, i64 24
  %10 = load ptr, ptr %9, align 8
  tail call void %10(ptr noundef nonnull align 8 dereferenceable(60) %7, i64 noundef %3)
  ret void
}